; Function Attrs: nounwind uwtable
define dso_local noundef ptr @new_field(i32 noundef %0, i32 noundef %1, i32 noundef %2, i32 noundef %3, i32 noundef %4, i32 noundef %5) local_unnamed_addr #0 {
  %7 = alloca i32, align 4
  %8 = icmp sgt i32 %0, 0
  %9 = icmp sgt i32 %1, 0
  %or.cond = and i1 %8, %9
  %10 = or i32 %3, %2
  %11 = or i32 %10, %4
  %12 = or i32 %11, %5
  %13 = icmp sgt i32 %12, -1
  %or.cond9 = and i1 %or.cond, %13
  br i1 %or.cond9, label %14, label %.critedge.thread

14:                                               ; preds = %6
  %15 = tail call noalias dereferenceable_or_null(120) ptr @malloc(i64 noundef 120) #7
  %.not = icmp eq ptr %15, null
  br i1 %.not, label %.critedge.thread, label %16

16:                                               ; preds = %14
  tail call void @llvm.memcpy.p0.p0.i64(ptr noundef nonnull align 8 dereferenceable(120) %15, ptr noundef nonnull align 8 dereferenceable(120) @default_field, i64 120, i1 false), !tbaa.struct !30
  %17 = trunc i32 %0 to i16
  %18 = getelementptr inbounds nuw i8, ptr %15, i64 2
  store i16 %17, ptr %18, align 2, !tbaa !37
  %19 = trunc i32 %1 to i16
  %20 = getelementptr inbounds nuw i8, ptr %15, i64 4
  store i16 %19, ptr %20, align 4, !tbaa !38
  %21 = add nsw i32 %4, %0
  %22 = getelementptr inbounds nuw i8, ptr %15, i64 12
  store i32 %21, ptr %22, align 4, !tbaa !39
  %23 = getelementptr inbounds nuw i8, ptr %15, i64 16
  store i32 %1, ptr %23, align 8, !tbaa !40
  %24 = trunc i32 %2 to i16
  %25 = getelementptr inbounds nuw i8, ptr %15, i64 6
  store i16 %24, ptr %25, align 2, !tbaa !41
  %26 = trunc i32 %3 to i16
  %27 = getelementptr inbounds nuw i8, ptr %15, i64 8
  store i16 %26, ptr %27, align 8, !tbaa !42
  %28 = getelementptr inbounds nuw i8, ptr %15, i64 24
  store i32 %4, ptr %28, align 8, !tbaa !43
  %29 = trunc i32 %5 to i16
  %30 = getelementptr inbounds nuw i8, ptr %15, i64 28
  store i16 %29, ptr %30, align 4, !tbaa !44
  %31 = getelementptr inbounds nuw i8, ptr %15, i64 72
  store ptr %15, ptr %31, align 8, !tbaa !45
  call void @llvm.lifetime.start.p0(i64 4, ptr nonnull %7) #8
  store i32 0, ptr %7, align 4, !tbaa !18
  %32 = load ptr, ptr getelementptr inbounds nuw (i8, ptr @default_field, i64 88), align 8, !tbaa !23
  %33 = getelementptr inbounds nuw i8, ptr %15, i64 88
  store ptr %32, ptr %33, align 8, !tbaa !23
  %34 = load ptr, ptr getelementptr inbounds nuw (i8, ptr @default_field, i64 96), align 8, !tbaa !28
  %35 = call ptr @_nc_Copy_Argument(ptr noundef %32, ptr noundef %34, ptr noundef nonnull %7)
  %36 = getelementptr inbounds nuw i8, ptr %15, i64 96
  store ptr %35, ptr %36, align 8, !tbaa !28
  %37 = load i32, ptr %7, align 4, !tbaa !18
  %.not.i = icmp eq i32 %37, 0
  %38 = load ptr, ptr %33, align 8, !tbaa !23
  br i1 %.not.i, label %39, label %_nc_Copy_Type.exit

39:                                               ; preds = %16
  %.not13.i = icmp eq ptr %38, null
  br i1 %.not13.i, label %44, label %40

40:                                               ; preds = %39
  %41 = getelementptr inbounds nuw i8, ptr %38, i64 8
  %42 = load i64, ptr %41, align 8, !tbaa !29
  %43 = add nsw i64 %42, 1
  store i64 %43, ptr %41, align 8, !tbaa !29
  br label %44

_nc_Copy_Type.exit:                               ; preds = %16
  call void @_nc_Free_Argument(ptr noundef %38, ptr noundef %35)
  call void @llvm.memset.p0.i64(ptr noundef nonnull align 8 dereferenceable(16) %33, i8 0, i64 16, i1 false)
  call void @llvm.lifetime.end.p0(i64 4, ptr nonnull %7) #8
  br label %.critedge

44:                                               ; preds = %39, %40
  call void @llvm.lifetime.end.p0(i64 4, ptr nonnull %7) #8
  %45 = load i32, ptr %22, align 4, !tbaa !39
  %46 = load i32, ptr %23, align 8, !tbaa !40
  %47 = mul nsw i32 %46, %45
  %48 = add nsw i32 %47, 1
  %49 = load i16, ptr %30, align 4, !tbaa !44
  %50 = sext i16 %49 to i32
  %51 = add nsw i32 %50, 1
  %52 = mul nsw i32 %51, %48
  %53 = sext i32 %52 to i64
  %54 = call noalias ptr @malloc(i64 noundef %53) #7
  %55 = getelementptr inbounds nuw i8, ptr %15, i64 104
  store ptr %54, ptr %55, align 8, !tbaa !46
  %.not65 = icmp eq ptr %54, null
  br i1 %.not65, label %.critedge, label %56

56:                                               ; preds = %44
  call void @llvm.memset.p0.i64(ptr nonnull align 1 %54, i8 32, i64 %53, i1 false)
  %.not6673 = icmp slt i16 %49, 0
  br i1 %.not6673, label %.loopexit, label %.lr.ph

.lr.ph:                                           ; preds = %56, %.lr.ph
  %.05574 = phi i32 [ %63, %.lr.ph ], [ 0, %56 ]
  %57 = load ptr, ptr %55, align 8, !tbaa !46
  %58 = load i32, ptr %22, align 4, !tbaa !39
  %59 = load i16, ptr %20, align 4, !tbaa !38
  %60 = sext i16 %59 to i32
  %61 = mul nsw i32 %58, %60
  %62 = add nsw i32 %61, 1
  %63 = add nuw nsw i32 %.05574, 1
  %64 = mul nsw i32 %62, %63
  %65 = sext i32 %64 to i64
  %66 = getelementptr i8, ptr %57, i64 %65
  %67 = getelementptr i8, ptr %66, i64 -1
  store i8 0, ptr %67, align 1, !tbaa !47
  %68 = load i16, ptr %30, align 4, !tbaa !44
  %69 = sext i16 %68 to i32
  %.not66.not = icmp slt i32 %.05574, %69
  br i1 %.not66.not, label %.lr.ph, label %.loopexit, !llvm.loop !48

.critedge:                                        ; preds = %_nc_Copy_Type.exit, %44
  %70 = phi ptr [ null, %_nc_Copy_Type.exit ], [ %38, %44 ]
  %71 = getelementptr inbounds nuw i8, ptr %15, i64 80
  %72 = load ptr, ptr %71, align 8, !tbaa !50
  %.not18.i = icmp eq ptr %72, null
  br i1 %.not18.i, label %73, label %free_field.exit

73:                                               ; preds = %.critedge
  %74 = load ptr, ptr %31, align 8, !tbaa !45
  %75 = icmp eq ptr %15, %74
  br i1 %75, label %76, label %.preheader.i

76:                                               ; preds = %73
  %77 = getelementptr inbounds nuw i8, ptr %15, i64 104
  %78 = load ptr, ptr %77, align 8, !tbaa !46
  %.not20.i = icmp eq ptr %78, null
  br i1 %.not20.i, label %84, label %79

79:                                               ; preds = %76
  call void @free(ptr noundef nonnull %78) #8
  %.pre = load ptr, ptr %33, align 8, !tbaa !23
  br label %84

.preheader.i:                                     ; preds = %73, %.preheader.i
  %.0.i = phi ptr [ %81, %.preheader.i ], [ %15, %73 ]
  %80 = getelementptr inbounds nuw i8, ptr %.0.i, i64 72
  %81 = load ptr, ptr %80, align 8, !tbaa !45
  %.not19.i = icmp eq ptr %81, %15
  br i1 %.not19.i, label %82, label %.preheader.i, !llvm.loop !51

82:                                               ; preds = %.preheader.i
  %83 = getelementptr inbounds nuw i8, ptr %.0.i, i64 72
  store ptr %74, ptr %83, align 8, !tbaa !45
  br label %84

84:                                               ; preds = %82, %79, %76
  %85 = phi ptr [ %70, %82 ], [ %.pre, %79 ], [ %70, %76 ]
  %.not.i.i = icmp eq ptr %85, null
  br i1 %.not.i.i, label %_nc_Free_Type.exit.i, label %86

86:                                               ; preds = %84
  %87 = getelementptr inbounds nuw i8, ptr %85, i64 8
  %88 = load i64, ptr %87, align 8, !tbaa !29
  %89 = add nsw i64 %88, -1
  store i64 %89, ptr %87, align 8, !tbaa !29
  br label %_nc_Free_Type.exit.i

_nc_Free_Type.exit.i:                             ; preds = %86, %84
  %90 = load ptr, ptr %36, align 8, !tbaa !28
  call void @_nc_Free_Argument(ptr noundef %85, ptr noundef %90)
  call void @free(ptr noundef nonnull %15) #8
  br label %free_field.exit

free_field.exit:                                  ; preds = %.critedge, %_nc_Free_Type.exit.i
  %.sink.i = phi i32 [ 0, %_nc_Free_Type.exit.i ], [ -4, %.critedge ]
  %91 = tail call ptr @__errno_location() #9
  store i32 %.sink.i, ptr %91, align 4, !tbaa !18
  br label %.critedge.thread

.critedge.thread:                                 ; preds = %6, %14, %free_field.exit
  %.05772 = phi i32 [ -1, %free_field.exit ], [ -2, %6 ], [ -1, %14 ]
  %92 = tail call ptr @__errno_location() #9
  store i32 %.05772, ptr %92, align 4, !tbaa !18
  br label %.loopexit

.loopexit:                                        ; preds = %.lr.ph, %56, %.critedge.thread
  %.1 = phi ptr [ null, %.critedge.thread ], [ %15, %56 ], [ %15, %.lr.ph ]
  ret ptr %.1
}